; Function Attrs: nounwind uwtable
define ptr @l_Lean_RBNode_revFold___at_Lean_Compiler_LCNF_Decl_reduceArity___spec__11(ptr noundef %0, ptr noundef %1) local_unnamed_addr #0 {
  br label %3

3:                                                ; preds = %lean_alloc_ctor.exit, %2
  %.014 = phi ptr [ %1, %2 ], [ %16, %lean_alloc_ctor.exit ]
  %.0 = phi ptr [ %0, %2 ], [ %30, %lean_alloc_ctor.exit ]
  %4 = ptrtoint ptr %.014 to i64
  %5 = and i64 %4, 1
  %.not.i = icmp eq i64 %5, 0
  br i1 %.not.i, label %9, label %6

6:                                                ; preds = %3
  %7 = lshr i64 %4, 1
  %8 = trunc i64 %7 to i32
  br label %lean_obj_tag.exit

9:                                                ; preds = %3
  %10 = getelementptr i8, ptr %.014, i64 4
  %.val.i = load i32, ptr %10, align 4
  %11 = lshr i32 %.val.i, 24
  br label %lean_obj_tag.exit

lean_obj_tag.exit:                                ; preds = %6, %9
  %.0.i = phi i32 [ %8, %6 ], [ %11, %9 ]
  %12 = icmp eq i32 %.0.i, 0
  br i1 %12, label %13, label %14

13:                                               ; preds = %lean_obj_tag.exit
  ret ptr %.0

14:                                               ; preds = %lean_obj_tag.exit
  %15 = getelementptr inbounds nuw i8, ptr %.014, i64 8
  %16 = load ptr, ptr %15, align 8, !tbaa !4
  %17 = getelementptr inbounds nuw i8, ptr %.014, i64 16
  %18 = load ptr, ptr %17, align 8, !tbaa !4
  %19 = getelementptr inbounds nuw i8, ptr %.014, i64 32
  %20 = load ptr, ptr %19, align 8, !tbaa !4
  %21 = tail call ptr @l_Lean_RBNode_revFold___at_Lean_Compiler_LCNF_Decl_reduceArity___spec__11(ptr noundef %.0, ptr noundef %20)
  %22 = ptrtoint ptr %18 to i64
  %23 = and i64 %22, 1
  %.not = icmp eq i64 %23, 0
  br i1 %.not, label %24, label %lean_inc.exit

24:                                               ; preds = %14
  %.val.i15 = load i32, ptr %18, align 4, !tbaa !8
  %25 = icmp sgt i32 %.val.i15, 0
  br i1 %25, label %26, label %28, !prof !11

26:                                               ; preds = %24
  %27 = add nuw i32 %.val.i15, 1
  store i32 %27, ptr %18, align 4, !tbaa !8
  br label %lean_inc.exit

28:                                               ; preds = %24
  %.not.i16 = icmp eq i32 %.val.i15, 0
  br i1 %.not.i16, label %lean_inc.exit, label %29

29:                                               ; preds = %28
  tail call void @lean_inc_ref_cold(ptr noundef nonnull %18) #4
  br label %lean_inc.exit

lean_inc.exit:                                    ; preds = %29, %28, %26, %14
  tail call void @lean_inc_heartbeat() #4
  %30 = tail call noalias ptr @mi_malloc_small(i64 noundef 24) #4
  %31 = icmp eq ptr %30, null
  br i1 %31, label %32, label %lean_alloc_ctor.exit

32:                                               ; preds = %lean_inc.exit
  tail call void @lean_internal_panic_out_of_memory() #5
  unreachable

lean_alloc_ctor.exit:                             ; preds = %lean_inc.exit
  %33 = getelementptr inbounds nuw i8, ptr %30, i64 4
  store i32 1, ptr %30, align 4, !tbaa !8
  store i32 16908312, ptr %33, align 4
  %34 = getelementptr inbounds nuw i8, ptr %30, i64 8
  store ptr %18, ptr %34, align 8, !tbaa !4
  %35 = getelementptr inbounds nuw i8, ptr %30, i64 16
  store ptr %21, ptr %35, align 8, !tbaa !4
  br label %3
}